; Function Attrs: nofree norecurse nosync nounwind memory(argmem: readwrite) uwtable
define hidden i64 @_mi_random_next(ptr noundef captures(none) %0) local_unnamed_addr #0 {
  %2 = getelementptr inbounds nuw i8, ptr %0, i64 128
  %3 = load i32, ptr %2, align 4, !tbaa !7
  %4 = icmp slt i32 %3, 1
  br i1 %4, label %5, label %chacha_next32.exit

5:                                                ; preds = %1
  tail call fastcc void @chacha_block(ptr noundef nonnull %0)
  store i32 16, ptr %2, align 4, !tbaa !7
  br label %chacha_next32.exit

chacha_next32.exit:                               ; preds = %1, %5
  %6 = phi i32 [ 16, %5 ], [ %3, %1 ]
  %7 = getelementptr inbounds nuw i8, ptr %0, i64 64
  %8 = sub nsw i32 16, %6
  %9 = sext i32 %8 to i64
  %10 = getelementptr inbounds [16 x i32], ptr %7, i64 0, i64 %9
  %11 = load i32, ptr %10, align 4, !tbaa !3
  store i32 0, ptr %10, align 4, !tbaa !3
  %12 = load i32, ptr %2, align 4, !tbaa !7
  %13 = add nsw i32 %12, -1
  store i32 %13, ptr %2, align 4, !tbaa !7
  %14 = icmp slt i32 %12, 2
  br i1 %14, label %15, label %chacha_next32.exit2

15:                                               ; preds = %chacha_next32.exit
  tail call fastcc void @chacha_block(ptr noundef nonnull %0)
  store i32 16, ptr %2, align 4, !tbaa !7
  br label %chacha_next32.exit2

chacha_next32.exit2:                              ; preds = %chacha_next32.exit, %15
  %16 = phi i32 [ 16, %15 ], [ %13, %chacha_next32.exit ]
  %17 = zext i32 %11 to i64
  %18 = shl nuw i64 %17, 32
  %19 = sub nsw i32 16, %16
  %20 = sext i32 %19 to i64
  %21 = getelementptr inbounds [16 x i32], ptr %7, i64 0, i64 %20
  %22 = load i32, ptr %21, align 4, !tbaa !3
  store i32 0, ptr %21, align 4, !tbaa !3
  %23 = load i32, ptr %2, align 4, !tbaa !7
  %24 = add nsw i32 %23, -1
  store i32 %24, ptr %2, align 4, !tbaa !7
  %25 = zext i32 %22 to i64
  %26 = or disjoint i64 %18, %25
  ret i64 %26
}